target datalayout = "e-m:e-p270:32:32-p271:32:32-p272:64:64-i64:64-i128:128-f80:128-n8:16:32:64-S128"
target triple = "x86_64-pc-linux-gnu"

%struct.QMetaObject = type { %"struct.QMetaObject::Data" }
%"struct.QMetaObject::Data" = type { %"struct.QMetaObject::SuperData", ptr, ptr, ptr, ptr, ptr, ptr }
%"struct.QMetaObject::SuperData" = type { ptr }
%class.QString = type { %struct.QArrayDataPointer }
%struct.QArrayDataPointer = type { ptr, ptr, i64 }
%class.QObject = type { ptr, %class.QScopedPointer }
%class.QScopedPointer = type { ptr }
%class.CMainWindow = type { %class.QMainWindow, ptr, ptr, i32, i32, ptr, ptr, ptr, ptr, ptr, ptr, ptr, ptr, ptr, ptr, ptr, ptr, ptr, ptr, ptr, ptr, ptr, ptr, ptr, ptr, ptr, ptr, ptr, ptr, ptr, ptr, ptr }
%class.QMainWindow = type { %class.QWidget }
%class.QWidget = type { %class.QObject, %class.QPaintDevice.base, ptr }
%class.QPaintDevice.base = type <{ ptr, i16 }>
%class.ImageViewer = type { %class.QMainWindow, ptr, ptr, ptr, ptr, double, ptr, ptr, ptr, ptr, ptr, ptr, ptr, ptr, ptr, ptr }
%struct.QArrayData = type { %class.QBasicAtomicInteger, %class.QFlags.17, i64 }
%class.QBasicAtomicInteger = type { %"struct.std::atomic" }
%"struct.std::atomic" = type { %"struct.std::__atomic_base" }
%"struct.std::__atomic_base" = type { i32 }
%class.QFlags.17 = type { i32 }

@.str.23 = private unnamed_addr constant [11 x i8] c"File saved\00", align 1
@.str.34 = private unnamed_addr constant [9 x i8] c"MdiChild\00", align 1
@_ZN11CMainWindow16staticMetaObjectE = external global %struct.QMetaObject, align 8
@_ZN8MdiChild16staticMetaObjectE = external global %struct.QMetaObject, align 8
@_ZN11ImageViewer16staticMetaObjectE = external global %struct.QMetaObject, align 8

; Function Attrs: mustprogress nounwind uwtable
define linkonce_odr noundef i32 @_ZNSt13__atomic_baseIiEmmEv(ptr noundef nonnull align 4 dereferenceable(4) %0) #3 comdat align 2 {
  %2 = alloca ptr, align 8
  %3 = alloca i32, align 4
  %4 = alloca i32, align 4
  store ptr %0, ptr %2, align 8, !tbaa !258
  %5 = load ptr, ptr %2, align 8
  %6 = getelementptr inbounds nuw %"struct.std::__atomic_base", ptr %5, i32 0, i32 0
  store i32 1, ptr %3, align 4, !tbaa !34
  %7 = load i32, ptr %3, align 4
  %8 = atomicrmw sub ptr %6, i32 %7 seq_cst, align 4
  %9 = sub i32 %8, %7
  store i32 %9, ptr %4, align 4
  %10 = load i32, ptr %4, align 4, !tbaa !34
  ret i32 %10
}

; Function Attrs: inlinehint mustprogress nounwind uwtable
define linkonce_odr noundef zeroext i1 @_ZN10QAtomicOpsIiE5derefIiEEbRSt6atomicIT_E(ptr noundef nonnull align 4 dereferenceable(4) %0) #4 comdat align 2 {
  %2 = alloca ptr, align 8
  store ptr %0, ptr %2, align 8, !tbaa !256
  %3 = load ptr, ptr %2, align 8, !tbaa !256
  %4 = call noundef i32 @_ZNSt13__atomic_baseIiEmmEv(ptr noundef nonnull align 4 dereferenceable(4) %3) #11
  %5 = icmp ne i32 %4, 0
  ret i1 %5
}

; Function Attrs: mustprogress nounwind uwtable
define linkonce_odr noundef zeroext i1 @_ZN19QBasicAtomicIntegerIiE5derefEv(ptr noundef nonnull align 4 dereferenceable(4) %0) #3 comdat align 2 {
  %2 = alloca ptr, align 8
  store ptr %0, ptr %2, align 8, !tbaa !254
  %3 = load ptr, ptr %2, align 8
  %4 = getelementptr inbounds nuw %class.QBasicAtomicInteger, ptr %3, i32 0, i32 0
  %5 = call noundef zeroext i1 @_ZN10QAtomicOpsIiE5derefIiEEbRSt6atomicIT_E(ptr noundef nonnull align 4 dereferenceable(4) %4) #11
  ret i1 %5
}

; Function Attrs: mustprogress nounwind uwtable
define linkonce_odr noundef zeroext i1 @_ZN10QArrayData5derefEv(ptr noundef nonnull align 8 dereferenceable(16) %0) #3 comdat align 2 {
  %2 = alloca ptr, align 8
  store ptr %0, ptr %2, align 8, !tbaa !252
  %3 = load ptr, ptr %2, align 8
  %4 = getelementptr inbounds nuw %struct.QArrayData, ptr %3, i32 0, i32 0
  %5 = call noundef zeroext i1 @_ZN19QBasicAtomicIntegerIiE5derefEv(ptr noundef nonnull align 4 dereferenceable(4) %4) #11
  ret i1 %5
}

; Function Attrs: mustprogress nounwind uwtable
define linkonce_odr void @_ZN15QTypedArrayDataIDsE10deallocateEP10QArrayData(ptr noundef %0) #3 comdat align 2 {
  %2 = alloca ptr, align 8
  store ptr %0, ptr %2, align 8, !tbaa !252
  %3 = load ptr, ptr %2, align 8, !tbaa !252
  call void @_ZN10QArrayData10deallocateEPS_xx(ptr noundef %3, i64 noundef 2, i64 noundef 8) #11
  ret void
}

; Function Attrs: mustprogress nounwind uwtable
define linkonce_odr void @_ZN9QtPrivate12QPodArrayOpsIDsE10destroyAllEv(ptr noundef nonnull align 8 dereferenceable(24) %0) #3 comdat align 2 {
  %2 = alloca ptr, align 8
  store ptr %0, ptr %2, align 8, !tbaa !348
  ret void
}

; Function Attrs: mustprogress nounwind uwtable
define linkonce_odr noundef ptr @_ZN17QArrayDataPointerIDsEptEv(ptr noundef nonnull align 8 dereferenceable(24) %0) #3 comdat align 2 {
  %2 = alloca ptr, align 8
  store ptr %0, ptr %2, align 8, !tbaa !44
  %3 = load ptr, ptr %2, align 8
  ret ptr %3
}

; Function Attrs: mustprogress nounwind uwtable
define linkonce_odr noundef zeroext i1 @_ZN17QArrayDataPointerIDsE5derefEv(ptr noundef nonnull align 8 dereferenceable(24) %0) #3 comdat align 2 {
  %2 = alloca ptr, align 8
  store ptr %0, ptr %2, align 8, !tbaa !44
  %3 = load ptr, ptr %2, align 8
  %4 = getelementptr inbounds nuw %struct.QArrayDataPointer, ptr %3, i32 0, i32 0
  %5 = load ptr, ptr %4, align 8, !tbaa !46
  %6 = icmp ne ptr %5, null
  br i1 %6, label %7, label %11

7:                                                ; preds = %1
  %8 = getelementptr inbounds nuw %struct.QArrayDataPointer, ptr %3, i32 0, i32 0
  %9 = load ptr, ptr %8, align 8, !tbaa !46
  %10 = call noundef zeroext i1 @_ZN10QArrayData5derefEv(ptr noundef nonnull align 8 dereferenceable(16) %9) #11
  br label %11

11:                                               ; preds = %7, %1
  %12 = phi i1 [ true, %1 ], [ %10, %7 ]
  ret i1 %12
}

; Function Attrs: mustprogress uwtable
define linkonce_odr noundef ptr @_ZNK11QMetaObject4castEP7QObject(ptr noundef nonnull align 8 dereferenceable(56) %0, ptr noundef %1) #0 comdat align 2 {
  %3 = alloca ptr, align 8
  %4 = alloca ptr, align 8
  store ptr %0, ptr %3, align 8, !tbaa !413
  store ptr %1, ptr %4, align 8, !tbaa !128
  %5 = load ptr, ptr %3, align 8
  %6 = load ptr, ptr %4, align 8, !tbaa !128
  %7 = call noundef ptr @_ZNK11QMetaObject4castEPK7QObject(ptr noundef nonnull align 8 dereferenceable(56) %5, ptr noundef %6)
  ret ptr %7
}

; Function Attrs: mustprogress nounwind uwtable
define linkonce_odr void @_ZN17QArrayDataPointerIDsED2Ev(ptr noundef nonnull align 8 dereferenceable(24) %0) unnamed_addr #3 comdat align 2 {
  %2 = alloca ptr, align 8
  store ptr %0, ptr %2, align 8, !tbaa !44
  %3 = load ptr, ptr %2, align 8
  %4 = call noundef zeroext i1 @_ZN17QArrayDataPointerIDsE5derefEv(ptr noundef nonnull align 8 dereferenceable(24) %3) #11
  br i1 %4, label %9, label %5

5:                                                ; preds = %1
  %6 = call noundef ptr @_ZN17QArrayDataPointerIDsEptEv(ptr noundef nonnull align 8 dereferenceable(24) %3) #11
  call void @_ZN9QtPrivate12QPodArrayOpsIDsE10destroyAllEv(ptr noundef nonnull align 8 dereferenceable(24) %6) #11
  %7 = getelementptr inbounds nuw %struct.QArrayDataPointer, ptr %3, i32 0, i32 0
  %8 = load ptr, ptr %7, align 8, !tbaa !46
  call void @_ZN15QTypedArrayDataIDsE10deallocateEP10QArrayData(ptr noundef %8) #11
  br label %9

9:                                                ; preds = %5, %1
  ret void
}

; Function Attrs: inlinehint mustprogress uwtable
define linkonce_odr noundef ptr @_Z12qobject_castIP11ImageViewerET_P7QObject(ptr noundef %0) #6 comdat {
  %2 = alloca ptr, align 8
  store ptr %0, ptr %2, align 8, !tbaa !128
  %3 = load ptr, ptr %2, align 8, !tbaa !128
  %4 = call noundef ptr @_ZNK11QMetaObject4castEP7QObject(ptr noundef nonnull align 8 dereferenceable(56) @_ZN11ImageViewer16staticMetaObjectE, ptr noundef %3)
  ret ptr %4
}

; Function Attrs: inlinehint mustprogress uwtable
define linkonce_odr noundef ptr @_Z12qobject_castIP8MdiChildET_P7QObject(ptr noundef %0) #6 comdat {
  %2 = alloca ptr, align 8
  store ptr %0, ptr %2, align 8, !tbaa !128
  %3 = load ptr, ptr %2, align 8, !tbaa !128
  %4 = call noundef ptr @_ZNK11QMetaObject4castEP7QObject(ptr noundef nonnull align 8 dereferenceable(56) @_ZN8MdiChild16staticMetaObjectE, ptr noundef %3)
  ret ptr %4
}

; Function Attrs: inlinehint mustprogress uwtable
define linkonce_odr noundef zeroext i1 @_ZNK7QObject8inheritsEPKc(ptr noundef nonnull align 8 dereferenceable(16) %0, ptr noundef %1) #6 comdat align 2 {
  %3 = alloca ptr, align 8
  %4 = alloca ptr, align 8
  store ptr %0, ptr %3, align 8, !tbaa !128
  store ptr %1, ptr %4, align 8, !tbaa !3
  %5 = load ptr, ptr %3, align 8
  %6 = load ptr, ptr %4, align 8, !tbaa !3
  %7 = load ptr, ptr %5, align 8, !tbaa !66
  %8 = getelementptr inbounds ptr, ptr %7, i64 1
  %9 = load ptr, ptr %8, align 8
  %10 = call noundef ptr %9(ptr noundef nonnull align 8 dereferenceable(16) %5, ptr noundef %6)
  %11 = icmp ne ptr %10, null
  ret i1 %11
}

; Function Attrs: inlinehint mustprogress nounwind uwtable
define linkonce_odr void @_ZN7QStringD2Ev(ptr noundef nonnull align 8 dereferenceable(24) %0) unnamed_addr #4 comdat align 2 {
  %2 = alloca ptr, align 8
  store ptr %0, ptr %2, align 8, !tbaa !10
  %3 = load ptr, ptr %2, align 8
  %4 = getelementptr inbounds nuw %class.QString, ptr %3, i32 0, i32 0
  call void @_ZN17QArrayDataPointerIDsED2Ev(ptr noundef nonnull align 8 dereferenceable(24) %4) #11
  ret void
}

; Function Attrs: inlinehint mustprogress uwtable
define linkonce_odr void @_ZN11CMainWindow2trEPKcS1_i(ptr dead_on_unwind noalias writable sret(%class.QString) align 8 %0, ptr noundef %1, ptr noundef %2, i32 noundef %3) #6 comdat align 2 {
  %5 = alloca ptr, align 8
  %6 = alloca ptr, align 8
  %7 = alloca ptr, align 8
  %8 = alloca i32, align 4
  store ptr %0, ptr %5, align 8
  store ptr %1, ptr %6, align 8, !tbaa !3
  store ptr %2, ptr %7, align 8, !tbaa !3
  store i32 %3, ptr %8, align 4, !tbaa !34
  %9 = load ptr, ptr %6, align 8, !tbaa !3
  %10 = load ptr, ptr %7, align 8, !tbaa !3
  %11 = load i32, ptr %8, align 4, !tbaa !34
  call void @_ZNK11QMetaObject2trEPKcS1_i(ptr dead_on_unwind writable sret(%class.QString) align 8 %0, ptr noundef nonnull align 8 dereferenceable(56) @_ZN11CMainWindow16staticMetaObjectE, ptr noundef %9, ptr noundef %10, i32 noundef %11)
  ret void
}

; Function Attrs: mustprogress uwtable
define noundef ptr @_ZN11CMainWindow14activeMdiChildEv(ptr noundef nonnull align 8 dereferenceable(280) %0) #0 align 2 {
  %2 = alloca ptr, align 8
  %3 = alloca ptr, align 8
  %4 = alloca ptr, align 8
  %5 = alloca i32, align 4
  store ptr %0, ptr %3, align 8, !tbaa !21
  %6 = load ptr, ptr %3, align 8
  call void @llvm.lifetime.start.p0(i64 8, ptr %4) #11
  %7 = getelementptr inbounds nuw %class.CMainWindow, ptr %6, i32 0, i32 1
  %8 = load ptr, ptr %7, align 8, !tbaa !70
  %9 = call noundef ptr @_ZNK8QMdiArea15activeSubWindowEv(ptr noundef nonnull align 8 dereferenceable(40) %8)
  store ptr %9, ptr %4, align 8, !tbaa !151
  %10 = load ptr, ptr %4, align 8, !tbaa !151
  %11 = icmp ne ptr %10, null
  br i1 %11, label %12, label %26

12:                                               ; preds = %1
  %13 = load ptr, ptr %4, align 8, !tbaa !151
  %14 = call noundef ptr @_ZNK13QMdiSubWindow6widgetEv(ptr noundef nonnull align 8 dereferenceable(40) %13)
  %15 = call noundef zeroext i1 @_ZNK7QObject8inheritsEPKc(ptr noundef nonnull align 8 dereferenceable(16) %14, ptr noundef @.str.34)
  br i1 %15, label %16, label %20

16:                                               ; preds = %12
  %17 = load ptr, ptr %4, align 8, !tbaa !151
  %18 = call noundef ptr @_ZNK13QMdiSubWindow6widgetEv(ptr noundef nonnull align 8 dereferenceable(40) %17)
  %19 = call noundef ptr @_Z12qobject_castIP8MdiChildET_P7QObject(ptr noundef %18)
  store ptr %19, ptr %2, align 8
  store i32 1, ptr %5, align 4
  br label %27

20:                                               ; preds = %12
  %21 = load ptr, ptr %4, align 8, !tbaa !151
  %22 = call noundef ptr @_ZNK13QMdiSubWindow6widgetEv(ptr noundef nonnull align 8 dereferenceable(40) %21)
  %23 = call noundef ptr @_Z12qobject_castIP11ImageViewerET_P7QObject(ptr noundef %22)
  %24 = getelementptr inbounds nuw %class.ImageViewer, ptr %23, i32 0, i32 1
  %25 = load ptr, ptr %24, align 8, !tbaa !179
  store ptr %25, ptr %2, align 8
  store i32 1, ptr %5, align 4
  br label %27

26:                                               ; preds = %1
  store i32 0, ptr %5, align 4
  br label %27

27:                                               ; preds = %26, %20, %16
  call void @llvm.lifetime.end.p0(i64 8, ptr %4) #11
  %28 = load i32, ptr %5, align 4
  switch i32 %28, label %32 [
    i32 0, label %29
    i32 1, label %30
  ]

29:                                               ; preds = %27
  store ptr null, ptr %2, align 8
  br label %30

30:                                               ; preds = %29, %27
  %31 = load ptr, ptr %2, align 8
  ret ptr %31

32:                                               ; preds = %27
  unreachable
}

; Function Attrs: mustprogress uwtable
define void @_ZN11CMainWindow10slotSaveAsEv(ptr noundef nonnull align 8 dereferenceable(280) %0) #0 align 2 personality ptr @__gxx_personality_v0 {
  %2 = alloca ptr, align 8
  %3 = alloca %class.QString, align 8
  %4 = alloca ptr, align 8
  %5 = alloca i32, align 4
  store ptr %0, ptr %2, align 8, !tbaa !21
  %6 = load ptr, ptr %2, align 8
  %7 = call noundef ptr @_ZN11CMainWindow14activeMdiChildEv(ptr noundef nonnull align 8 dereferenceable(280) %6)
  %8 = icmp ne ptr %7, null
  br i1 %8, label %9, label %19

9:                                                ; preds = %1
  %10 = call noundef ptr @_ZN11CMainWindow14activeMdiChildEv(ptr noundef nonnull align 8 dereferenceable(280) %6)
  %11 = call noundef zeroext i1 @_ZN8MdiChild6saveAsEv(ptr noundef nonnull align 8 dereferenceable(153) %10)
  br i1 %11, label %12, label %19

12:                                               ; preds = %9
  %13 = call noundef ptr @_ZNK11QMainWindow9statusBarEv(ptr noundef nonnull align 8 dereferenceable(40) %6)
  call void @llvm.lifetime.start.p0(i64 24, ptr %3) #11
  call void @_ZN11CMainWindow2trEPKcS1_i(ptr dead_on_unwind writable sret(%class.QString) align 8 %3, ptr noundef @.str.23, ptr noundef null, i32 noundef -1)
  invoke void @_ZN10QStatusBar11showMessageERK7QStringi(ptr noundef nonnull align 8 dereferenceable(40) %13, ptr noundef nonnull align 8 dereferenceable(24) %3, i32 noundef 2000)
          to label %14 unwind label %15

14:                                               ; preds = %12
  call void @_ZN7QStringD2Ev(ptr noundef nonnull align 8 dereferenceable(24) %3) #11
  call void @llvm.lifetime.end.p0(i64 24, ptr %3) #11
  br label %19

15:                                               ; preds = %12
  %16 = landingpad { ptr, i32 }
          cleanup
  %17 = extractvalue { ptr, i32 } %16, 0
  store ptr %17, ptr %4, align 8
  %18 = extractvalue { ptr, i32 } %16, 1
  store i32 %18, ptr %5, align 4
  call void @_ZN7QStringD2Ev(ptr noundef nonnull align 8 dereferenceable(24) %3) #11
  call void @llvm.lifetime.end.p0(i64 24, ptr %3) #11
  br label %20

19:                                               ; preds = %14, %9, %1
  ret void

20:                                               ; preds = %15
  %21 = load ptr, ptr %4, align 8
  %22 = load i32, ptr %5, align 4
  %23 = insertvalue { ptr, i32 } poison, ptr %21, 0
  %24 = insertvalue { ptr, i32 } %23, i32 %22, 1
  resume { ptr, i32 } %24
}