; Function Attrs: mustprogress uwtable
define void @_ZN11CMainWindow10slotSaveAsEv(ptr noundef nonnull align 8 dereferenceable(280) %0) #0 align 2 personality ptr @__gxx_personality_v0 {
  %2 = alloca %class.QString, align 8
  %3 = getelementptr inbounds nuw i8, ptr %0, i64 40
  %4 = load ptr, ptr %3, align 8, !tbaa !48
  %5 = tail call noundef ptr @_ZNK8QMdiArea15activeSubWindowEv(ptr noundef nonnull align 8 dereferenceable(40) %4)
  %.not.not.i = icmp eq ptr %5, null
  br i1 %.not.not.i, label %_ZN11CMainWindow14activeMdiChildEv.exit.thread, label %6

6:                                                ; preds = %1
  %7 = tail call noundef ptr @_ZNK13QMdiSubWindow6widgetEv(ptr noundef nonnull align 8 dereferenceable(40) %5)
  %8 = load ptr, ptr %7, align 8, !tbaa !46
  %9 = getelementptr inbounds nuw i8, ptr %8, i64 8
  %10 = load ptr, ptr %9, align 8
  %11 = tail call noundef ptr %10(ptr noundef nonnull align 8 dereferenceable(16) %7, ptr noundef nonnull @.str.34)
  %.not8.i = icmp eq ptr %11, null
  %12 = tail call noundef ptr @_ZNK13QMdiSubWindow6widgetEv(ptr noundef nonnull align 8 dereferenceable(40) %5)
  br i1 %.not8.i, label %15, label %13

13:                                               ; preds = %6
  %14 = tail call noundef ptr @_ZNK11QMetaObject4castEPK7QObject(ptr noundef nonnull align 8 dereferenceable(56) @_ZN8MdiChild16staticMetaObjectE, ptr noundef %12)
  br label %_ZN11CMainWindow14activeMdiChildEv.exit

15:                                               ; preds = %6
  %16 = tail call noundef ptr @_ZNK11QMetaObject4castEPK7QObject(ptr noundef nonnull align 8 dereferenceable(56) @_ZN11ImageViewer16staticMetaObjectE, ptr noundef %12)
  %17 = getelementptr inbounds nuw i8, ptr %16, i64 40
  %18 = load ptr, ptr %17, align 8, !tbaa !220
  br label %_ZN11CMainWindow14activeMdiChildEv.exit

_ZN11CMainWindow14activeMdiChildEv.exit:          ; preds = %13, %15
  %spec.select.i = phi ptr [ %14, %13 ], [ %18, %15 ]
  %.not = icmp eq ptr %spec.select.i, null
  br i1 %.not, label %_ZN11CMainWindow14activeMdiChildEv.exit.thread, label %19

19:                                               ; preds = %_ZN11CMainWindow14activeMdiChildEv.exit
  %20 = load ptr, ptr %3, align 8, !tbaa !48
  %21 = tail call noundef ptr @_ZNK8QMdiArea15activeSubWindowEv(ptr noundef nonnull align 8 dereferenceable(40) %20)
  %.not.not.i2 = icmp ne ptr %21, null
  tail call void @llvm.assume(i1 %.not.not.i2)
  %22 = tail call noundef ptr @_ZNK13QMdiSubWindow6widgetEv(ptr noundef nonnull align 8 dereferenceable(40) %21)
  %23 = load ptr, ptr %22, align 8, !tbaa !46
  %24 = getelementptr inbounds nuw i8, ptr %23, i64 8
  %25 = load ptr, ptr %24, align 8
  %26 = tail call noundef ptr %25(ptr noundef nonnull align 8 dereferenceable(16) %22, ptr noundef nonnull @.str.34)
  %.not8.i3 = icmp eq ptr %26, null
  %27 = tail call noundef ptr @_ZNK13QMdiSubWindow6widgetEv(ptr noundef nonnull align 8 dereferenceable(40) %21)
  br i1 %.not8.i3, label %30, label %28

28:                                               ; preds = %19
  %29 = tail call noundef ptr @_ZNK11QMetaObject4castEPK7QObject(ptr noundef nonnull align 8 dereferenceable(56) @_ZN8MdiChild16staticMetaObjectE, ptr noundef %27)
  br label %_ZN11CMainWindow14activeMdiChildEv.exit5

30:                                               ; preds = %19
  %31 = tail call noundef ptr @_ZNK11QMetaObject4castEPK7QObject(ptr noundef nonnull align 8 dereferenceable(56) @_ZN11ImageViewer16staticMetaObjectE, ptr noundef %27)
  %32 = getelementptr inbounds nuw i8, ptr %31, i64 40
  %33 = load ptr, ptr %32, align 8, !tbaa !220
  br label %_ZN11CMainWindow14activeMdiChildEv.exit5

_ZN11CMainWindow14activeMdiChildEv.exit5:         ; preds = %28, %30
  %spec.select.i4 = phi ptr [ %29, %28 ], [ %33, %30 ]
  %34 = tail call noundef zeroext i1 @_ZN8MdiChild6saveAsEv(ptr noundef nonnull align 8 dereferenceable(153) %spec.select.i4)
  br i1 %34, label %35, label %_ZN11CMainWindow14activeMdiChildEv.exit.thread

35:                                               ; preds = %_ZN11CMainWindow14activeMdiChildEv.exit5
  %36 = tail call noundef ptr @_ZNK11QMainWindow9statusBarEv(ptr noundef nonnull align 8 dereferenceable(40) %0)
  call void @llvm.lifetime.start.p0(i64 24, ptr nonnull %2) #16
  call void @_ZNK11QMetaObject2trEPKcS1_i(ptr dead_on_unwind nonnull writable sret(%class.QString) align 8 %2, ptr noundef nonnull align 8 dereferenceable(56) @_ZN11CMainWindow16staticMetaObjectE, ptr noundef nonnull @.str.23, ptr noundef null, i32 noundef -1)
  invoke void @_ZN10QStatusBar11showMessageERK7QStringi(ptr noundef nonnull align 8 dereferenceable(40) %36, ptr noundef nonnull align 8 dereferenceable(24) %2, i32 noundef 2000)
          to label %37 unwind label %42

37:                                               ; preds = %35
  %38 = load ptr, ptr %2, align 8, !tbaa !11
  %.not.i.i.i = icmp eq ptr %38, null
  br i1 %.not.i.i.i, label %_ZN7QStringD2Ev.exit, label %_ZN17QArrayDataPointerIDsE5derefEv.exit.i.i

_ZN17QArrayDataPointerIDsE5derefEv.exit.i.i:      ; preds = %37
  %39 = atomicrmw sub ptr %38, i32 1 seq_cst, align 4
  %.not.i.i = icmp eq i32 %39, 1
  br i1 %.not.i.i, label %40, label %_ZN7QStringD2Ev.exit

40:                                               ; preds = %_ZN17QArrayDataPointerIDsE5derefEv.exit.i.i
  %41 = load ptr, ptr %2, align 8, !tbaa !11
  call void @_ZN10QArrayData10deallocateEPS_xx(ptr noundef %41, i64 noundef 2, i64 noundef 8) #16
  br label %_ZN7QStringD2Ev.exit

_ZN7QStringD2Ev.exit:                             ; preds = %37, %_ZN17QArrayDataPointerIDsE5derefEv.exit.i.i, %40
  call void @llvm.lifetime.end.p0(i64 24, ptr nonnull %2) #16
  br label %_ZN11CMainWindow14activeMdiChildEv.exit.thread

42:                                               ; preds = %35
  %43 = landingpad { ptr, i32 }
          cleanup
  %44 = load ptr, ptr %2, align 8, !tbaa !11
  %.not.i.i.i6 = icmp eq ptr %44, null
  br i1 %.not.i.i.i6, label %_ZN7QStringD2Ev.exit9, label %_ZN17QArrayDataPointerIDsE5derefEv.exit.i.i7

_ZN17QArrayDataPointerIDsE5derefEv.exit.i.i7:     ; preds = %42
  %45 = atomicrmw sub ptr %44, i32 1 seq_cst, align 4
  %.not.i.i8 = icmp eq i32 %45, 1
  br i1 %.not.i.i8, label %46, label %_ZN7QStringD2Ev.exit9

46:                                               ; preds = %_ZN17QArrayDataPointerIDsE5derefEv.exit.i.i7
  %47 = load ptr, ptr %2, align 8, !tbaa !11
  call void @_ZN10QArrayData10deallocateEPS_xx(ptr noundef %47, i64 noundef 2, i64 noundef 8) #16
  br label %_ZN7QStringD2Ev.exit9

_ZN7QStringD2Ev.exit9:                            ; preds = %42, %_ZN17QArrayDataPointerIDsE5derefEv.exit.i.i7, %46
  call void @llvm.lifetime.end.p0(i64 24, ptr nonnull %2) #16
  resume { ptr, i32 } %43

_ZN11CMainWindow14activeMdiChildEv.exit.thread:   ; preds = %1, %_ZN7QStringD2Ev.exit, %_ZN11CMainWindow14activeMdiChildEv.exit5, %_ZN11CMainWindow14activeMdiChildEv.exit
  ret void
}